
/home/poker/Desktop/ics2023/am-kernels/tests/cpu-tests/build/hello-str-riscv32-nemu.elf:     file format elf32-littleriscv


Disassembly of section .text:

80000000 <_start>:
80000000:	00000413          	li	s0,0
80000004:	00009117          	auipc	sp,0x9
80000008:	ffc10113          	addi	sp,sp,-4 # 80009000 <_end>
8000000c:	0e8000ef          	jal	ra,800000f4 <_trm_init>

80000010 <check>:
80000010:	00050463          	beqz	a0,80000018 <check+0x8>
80000014:	00008067          	ret
80000018:	ff010113          	addi	sp,sp,-16
8000001c:	00100513          	li	a0,1
80000020:	00112623          	sw	ra,12(sp)
80000024:	0c4000ef          	jal	ra,800000e8 <halt>

80000028 <main>:
80000028:	ff010113          	addi	sp,sp,-16
8000002c:	00812423          	sw	s0,8(sp)
80000030:	00000417          	auipc	s0,0x0
80000034:	5f840413          	addi	s0,s0,1528 # 80000628 <buf>
80000038:	00000617          	auipc	a2,0x0
8000003c:	54060613          	addi	a2,a2,1344 # 80000578 <_etext>
80000040:	00000597          	auipc	a1,0x0
80000044:	54858593          	addi	a1,a1,1352 # 80000588 <_etext+0x10>
80000048:	00040513          	mv	a0,s0
8000004c:	00112623          	sw	ra,12(sp)
80000050:	4e4000ef          	jal	ra,80000534 <sprintf>
80000054:	00000597          	auipc	a1,0x0
80000058:	52458593          	addi	a1,a1,1316 # 80000578 <_etext>
8000005c:	00040513          	mv	a0,s0
80000060:	0b4000ef          	jal	ra,80000114 <strcmp>
80000064:	00153513          	seqz	a0,a0
80000068:	fa9ff0ef          	jal	ra,80000010 <check>
8000006c:	00200713          	li	a4,2
80000070:	00100693          	li	a3,1
80000074:	00100613          	li	a2,1
80000078:	00000597          	auipc	a1,0x0
8000007c:	51458593          	addi	a1,a1,1300 # 8000058c <_etext+0x14>
80000080:	00040513          	mv	a0,s0
80000084:	4b0000ef          	jal	ra,80000534 <sprintf>
80000088:	00000597          	auipc	a1,0x0
8000008c:	51458593          	addi	a1,a1,1300 # 8000059c <_etext+0x24>
80000090:	00040513          	mv	a0,s0
80000094:	080000ef          	jal	ra,80000114 <strcmp>
80000098:	00153513          	seqz	a0,a0
8000009c:	f75ff0ef          	jal	ra,80000010 <check>
800000a0:	00c00713          	li	a4,12
800000a4:	00a00693          	li	a3,10
800000a8:	00200613          	li	a2,2
800000ac:	00000597          	auipc	a1,0x0
800000b0:	4e058593          	addi	a1,a1,1248 # 8000058c <_etext+0x14>
800000b4:	00040513          	mv	a0,s0
800000b8:	47c000ef          	jal	ra,80000534 <sprintf>
800000bc:	00000597          	auipc	a1,0x0
800000c0:	4ec58593          	addi	a1,a1,1260 # 800005a8 <_etext+0x30>
800000c4:	00040513          	mv	a0,s0
800000c8:	04c000ef          	jal	ra,80000114 <strcmp>
800000cc:	00153513          	seqz	a0,a0
800000d0:	f41ff0ef          	jal	ra,80000010 <check>
800000d4:	00c12083          	lw	ra,12(sp)
800000d8:	00812403          	lw	s0,8(sp)
800000dc:	00000513          	li	a0,0
800000e0:	01010113          	addi	sp,sp,16
800000e4:	00008067          	ret

800000e8 <halt>:
800000e8:	00050513          	mv	a0,a0
800000ec:	00100073          	ebreak
800000f0:	0000006f          	j	800000f0 <halt+0x8>

800000f4 <_trm_init>:
800000f4:	ff010113          	addi	sp,sp,-16
800000f8:	00000517          	auipc	a0,0x0
800000fc:	52c50513          	addi	a0,a0,1324 # 80000624 <mainargs>
80000100:	00112623          	sw	ra,12(sp)
80000104:	f25ff0ef          	jal	ra,80000028 <main>
80000108:	00050513          	mv	a0,a0
8000010c:	00100073          	ebreak
80000110:	0000006f          	j	80000110 <_trm_init+0x1c>

80000114 <strcmp>:
80000114:	00054783          	lbu	a5,0(a0)
80000118:	00079c63          	bnez	a5,80000130 <strcmp+0x1c>
8000011c:	0380006f          	j	80000154 <strcmp+0x40>
80000120:	02f71063          	bne	a4,a5,80000140 <strcmp+0x2c>
80000124:	00054783          	lbu	a5,0(a0)
80000128:	02078063          	beqz	a5,80000148 <strcmp+0x34>
8000012c:	00068593          	mv	a1,a3
80000130:	0005c703          	lbu	a4,0(a1)
80000134:	00150513          	addi	a0,a0,1
80000138:	00158693          	addi	a3,a1,1
8000013c:	fe0712e3          	bnez	a4,80000120 <strcmp+0xc>
80000140:	40e78533          	sub	a0,a5,a4
80000144:	00008067          	ret
80000148:	0015c703          	lbu	a4,1(a1)
8000014c:	40e78533          	sub	a0,a5,a4
80000150:	00008067          	ret
80000154:	0005c703          	lbu	a4,0(a1)
80000158:	fe9ff06f          	j	80000140 <strcmp+0x2c>

8000015c <vsnprintf>:
8000015c:	00064703          	lbu	a4,0(a2)
80000160:	00050813          	mv	a6,a0
80000164:	00000513          	li	a0,0
80000168:	3a070063          	beqz	a4,80000508 <vsnprintf+0x3ac>
8000016c:	f6010113          	addi	sp,sp,-160
80000170:	08812e23          	sw	s0,156(sp)
80000174:	08912c23          	sw	s1,152(sp)
80000178:	09212a23          	sw	s2,148(sp)
8000017c:	09312823          	sw	s3,144(sp)
80000180:	09412623          	sw	s4,140(sp)
80000184:	09512423          	sw	s5,136(sp)
80000188:	09612223          	sw	s6,132(sp)
8000018c:	09712023          	sw	s7,128(sp)
80000190:	00000893          	li	a7,0
80000194:	02500f93          	li	t6,37
80000198:	01500f13          	li	t5,21
8000019c:	00000e97          	auipc	t4,0x0
800001a0:	41ce8e93          	addi	t4,t4,1052 # 800005b8 <_etext+0x40>
800001a4:	03000e13          	li	t3,48
800001a8:	02d00493          	li	s1,45
800001ac:	00000317          	auipc	t1,0x0
800001b0:	46430313          	addi	t1,t1,1124 # 80000610 <HEX_CHARACTERS>
800001b4:	fff00413          	li	s0,-1
800001b8:	00800393          	li	t2,8
800001bc:	00a00293          	li	t0,10
800001c0:	00188a13          	addi	s4,a7,1
800001c4:	00a809b3          	add	s3,a6,a0
800001c8:	01460a33          	add	s4,a2,s4
800001cc:	40a88ab3          	sub	s5,a7,a0
800001d0:	00050913          	mv	s2,a0
800001d4:	00aa88b3          	add	a7,s5,a0
800001d8:	00098793          	mv	a5,s3
800001dc:	05f70663          	beq	a4,t6,80000228 <vsnprintf+0xcc>
800001e0:	00e98023          	sb	a4,0(s3)
800001e4:	000a4703          	lbu	a4,0(s4)
800001e8:	00150513          	addi	a0,a0,1
800001ec:	00198993          	addi	s3,s3,1
800001f0:	001a0a13          	addi	s4,s4,1
800001f4:	fc071ee3          	bnez	a4,800001d0 <vsnprintf+0x74>
800001f8:	00a807b3          	add	a5,a6,a0
800001fc:	00078023          	sb	zero,0(a5)
80000200:	09c12403          	lw	s0,156(sp)
80000204:	09812483          	lw	s1,152(sp)
80000208:	09412903          	lw	s2,148(sp)
8000020c:	09012983          	lw	s3,144(sp)
80000210:	08c12a03          	lw	s4,140(sp)
80000214:	08812a83          	lw	s5,136(sp)
80000218:	08412b03          	lw	s6,132(sp)
8000021c:	08012b83          	lw	s7,128(sp)
80000220:	0a010113          	addi	sp,sp,160
80000224:	00008067          	ret
80000228:	000a4703          	lbu	a4,0(s4)
8000022c:	fc0708e3          	beqz	a4,800001fc <vsnprintf+0xa0>
80000230:	f9d70713          	addi	a4,a4,-99
80000234:	00288893          	addi	a7,a7,2
80000238:	0ff77713          	zext.b	a4,a4
8000023c:	01160a33          	add	s4,a2,a7
80000240:	00ef6c63          	bltu	t5,a4,80000258 <vsnprintf+0xfc>
80000244:	00271713          	slli	a4,a4,0x2
80000248:	01d70733          	add	a4,a4,t4
8000024c:	00072703          	lw	a4,0(a4)
80000250:	01d70733          	add	a4,a4,t4
80000254:	00070067          	jr	a4
80000258:	000a4703          	lbu	a4,0(s4)
8000025c:	f60712e3          	bnez	a4,800001c0 <vsnprintf+0x64>
80000260:	f9dff06f          	j	800001fc <vsnprintf+0xa0>
80000264:	0006a703          	lw	a4,0(a3)
80000268:	00150513          	addi	a0,a0,1
8000026c:	00468693          	addi	a3,a3,4
80000270:	00050793          	mv	a5,a0
80000274:	22071663          	bnez	a4,800004a0 <vsnprintf+0x344>
80000278:	01c98023          	sb	t3,0(s3)
8000027c:	000a4703          	lbu	a4,0(s4)
80000280:	f40710e3          	bnez	a4,800001c0 <vsnprintf+0x64>
80000284:	00a807b3          	add	a5,a6,a0
80000288:	f75ff06f          	j	800001fc <vsnprintf+0xa0>
8000028c:	0006aa83          	lw	s5,0(a3)
80000290:	00468693          	addi	a3,a3,4
80000294:	000ac783          	lbu	a5,0(s5)
80000298:	28078a63          	beqz	a5,8000052c <vsnprintf+0x3d0>
8000029c:	00150513          	addi	a0,a0,1
800002a0:	00f98023          	sb	a5,0(s3)
800002a4:	00050793          	mv	a5,a0
800002a8:	00b56e63          	bltu	a0,a1,800002c4 <vsnprintf+0x168>
800002ac:	02c0006f          	j	800002d8 <vsnprintf+0x17c>
800002b0:	00150513          	addi	a0,a0,1
800002b4:	00a807b3          	add	a5,a6,a0
800002b8:	fee78fa3          	sb	a4,-1(a5)
800002bc:	00050793          	mv	a5,a0
800002c0:	00b57c63          	bgeu	a0,a1,800002d8 <vsnprintf+0x17c>
800002c4:	412507b3          	sub	a5,a0,s2
800002c8:	00fa87b3          	add	a5,s5,a5
800002cc:	0007c703          	lbu	a4,0(a5)
800002d0:	00050793          	mv	a5,a0
800002d4:	fc071ee3          	bnez	a4,800002b0 <vsnprintf+0x154>
800002d8:	000a4703          	lbu	a4,0(s4)
800002dc:	ee0712e3          	bnez	a4,800001c0 <vsnprintf+0x64>
800002e0:	00f807b3          	add	a5,a6,a5
800002e4:	f19ff06f          	j	800001fc <vsnprintf+0xa0>
800002e8:	0006a783          	lw	a5,0(a3)
800002ec:	00468693          	addi	a3,a3,4
800002f0:	22078063          	beqz	a5,80000510 <vsnprintf+0x3b4>
800002f4:	00010a93          	mv	s5,sp
800002f8:	00000913          	li	s2,0
800002fc:	00f7f713          	andi	a4,a5,15
80000300:	00e30733          	add	a4,t1,a4
80000304:	00074b03          	lbu	s6,0(a4)
80000308:	0047d793          	srli	a5,a5,0x4
8000030c:	00090713          	mv	a4,s2
80000310:	016a8023          	sb	s6,0(s5)
80000314:	00190913          	addi	s2,s2,1
80000318:	001a8a93          	addi	s5,s5,1
8000031c:	fe0790e3          	bnez	a5,800002fc <vsnprintf+0x1a0>
80000320:	41238933          	sub	s2,t2,s2
80000324:	05205063          	blez	s2,80000364 <vsnprintf+0x208>
80000328:	00150513          	addi	a0,a0,1
8000032c:	01c98023          	sb	t3,0(s3)
80000330:	02b57463          	bgeu	a0,a1,80000358 <vsnprintf+0x1fc>
80000334:	00000793          	li	a5,0
80000338:	0140006f          	j	8000034c <vsnprintf+0x1f0>
8000033c:	00150513          	addi	a0,a0,1
80000340:	00a809b3          	add	s3,a6,a0
80000344:	ffc98fa3          	sb	t3,-1(s3)
80000348:	00b57663          	bgeu	a0,a1,80000354 <vsnprintf+0x1f8>
8000034c:	00178793          	addi	a5,a5,1
80000350:	ff27c6e3          	blt	a5,s2,8000033c <vsnprintf+0x1e0>
80000354:	1c870c63          	beq	a4,s0,8000052c <vsnprintf+0x3d0>
80000358:	08070793          	addi	a5,a4,128
8000035c:	002787b3          	add	a5,a5,sp
80000360:	f807cb03          	lbu	s6,-128(a5)
80000364:	00a807b3          	add	a5,a6,a0
80000368:	00150913          	addi	s2,a0,1
8000036c:	01678023          	sb	s6,0(a5)
80000370:	00090793          	mv	a5,s2
80000374:	08b97063          	bgeu	s2,a1,800003f4 <vsnprintf+0x298>
80000378:	00e50533          	add	a0,a0,a4
8000037c:	00150513          	addi	a0,a0,1
80000380:	00e10733          	add	a4,sp,a4
80000384:	0200006f          	j	800003a4 <vsnprintf+0x248>
80000388:	fff74983          	lbu	s3,-1(a4)
8000038c:	00178793          	addi	a5,a5,1
80000390:	00f80933          	add	s2,a6,a5
80000394:	ff390fa3          	sb	s3,-1(s2)
80000398:	fff70713          	addi	a4,a4,-1
8000039c:	00078913          	mv	s2,a5
800003a0:	04b7fa63          	bgeu	a5,a1,800003f4 <vsnprintf+0x298>
800003a4:	00090793          	mv	a5,s2
800003a8:	ff2510e3          	bne	a0,s2,80000388 <vsnprintf+0x22c>
800003ac:	f2dff06f          	j	800002d8 <vsnprintf+0x17c>
800003b0:	0006a783          	lw	a5,0(a3)
800003b4:	00150a93          	addi	s5,a0,1
800003b8:	00468693          	addi	a3,a3,4
800003bc:	04079463          	bnez	a5,80000404 <vsnprintf+0x2a8>
800003c0:	01c98023          	sb	t3,0(s3)
800003c4:	000a4703          	lbu	a4,0(s4)
800003c8:	04070863          	beqz	a4,80000418 <vsnprintf+0x2bc>
800003cc:	000a8513          	mv	a0,s5
800003d0:	df1ff06f          	j	800001c0 <vsnprintf+0x64>
800003d4:	0006a783          	lw	a5,0(a3)
800003d8:	00150513          	addi	a0,a0,1
800003dc:	00468693          	addi	a3,a3,4
800003e0:	00f98023          	sb	a5,0(s3)
800003e4:	000a4703          	lbu	a4,0(s4)
800003e8:	dc071ce3          	bnez	a4,800001c0 <vsnprintf+0x64>
800003ec:	00a807b3          	add	a5,a6,a0
800003f0:	e0dff06f          	j	800001fc <vsnprintf+0xa0>
800003f4:	000a4703          	lbu	a4,0(s4)
800003f8:	00078513          	mv	a0,a5
800003fc:	dc0712e3          	bnez	a4,800001c0 <vsnprintf+0x64>
80000400:	ee1ff06f          	j	800002e0 <vsnprintf+0x184>
80000404:	0207d663          	bgez	a5,80000430 <vsnprintf+0x2d4>
80000408:	00998023          	sb	s1,0(s3)
8000040c:	00baec63          	bltu	s5,a1,80000424 <vsnprintf+0x2c8>
80000410:	000a4703          	lbu	a4,0(s4)
80000414:	fa071ce3          	bnez	a4,800003cc <vsnprintf+0x270>
80000418:	015807b3          	add	a5,a6,s5
8000041c:	000a8513          	mv	a0,s5
80000420:	dddff06f          	j	800001fc <vsnprintf+0xa0>
80000424:	000a8913          	mv	s2,s5
80000428:	40f007b3          	neg	a5,a5
8000042c:	00250a93          	addi	s5,a0,2
80000430:	00010b13          	mv	s6,sp
80000434:	00000993          	li	s3,0
80000438:	0257e733          	rem	a4,a5,t0
8000043c:	001b0b13          	addi	s6,s6,1
80000440:	00098513          	mv	a0,s3
80000444:	00198993          	addi	s3,s3,1
80000448:	0257c7b3          	div	a5,a5,t0
8000044c:	00e30733          	add	a4,t1,a4
80000450:	00074703          	lbu	a4,0(a4)
80000454:	feeb0fa3          	sb	a4,-1(s6)
80000458:	fe0790e3          	bnez	a5,80000438 <vsnprintf+0x2dc>
8000045c:	01280933          	add	s2,a6,s2
80000460:	00e90023          	sb	a4,0(s2)
80000464:	000a8793          	mv	a5,s5
80000468:	f8baf6e3          	bgeu	s5,a1,800003f4 <vsnprintf+0x298>
8000046c:	00a10733          	add	a4,sp,a0
80000470:	00aa8533          	add	a0,s5,a0
80000474:	0200006f          	j	80000494 <vsnprintf+0x338>
80000478:	fff74983          	lbu	s3,-1(a4)
8000047c:	00178793          	addi	a5,a5,1
80000480:	00f80933          	add	s2,a6,a5
80000484:	ff390fa3          	sb	s3,-1(s2)
80000488:	00078a93          	mv	s5,a5
8000048c:	fff70713          	addi	a4,a4,-1
80000490:	f6b7f2e3          	bgeu	a5,a1,800003f4 <vsnprintf+0x298>
80000494:	000a8793          	mv	a5,s5
80000498:	ff5510e3          	bne	a0,s5,80000478 <vsnprintf+0x31c>
8000049c:	e3dff06f          	j	800002d8 <vsnprintf+0x17c>
800004a0:	00010b13          	mv	s6,sp
800004a4:	00000a93          	li	s5,0
800004a8:	00f77913          	andi	s2,a4,15
800004ac:	01230933          	add	s2,t1,s2
800004b0:	00094b83          	lbu	s7,0(s2)
800004b4:	00475713          	srli	a4,a4,0x4
800004b8:	000a8913          	mv	s2,s5
800004bc:	017b0023          	sb	s7,0(s6)
800004c0:	001a8a93          	addi	s5,s5,1
800004c4:	001b0b13          	addi	s6,s6,1
800004c8:	fe0710e3          	bnez	a4,800004a8 <vsnprintf+0x34c>
800004cc:	01798023          	sb	s7,0(s3)
800004d0:	e0b574e3          	bgeu	a0,a1,800002d8 <vsnprintf+0x17c>
800004d4:	01210733          	add	a4,sp,s2
800004d8:	00a90933          	add	s2,s2,a0
800004dc:	0200006f          	j	800004fc <vsnprintf+0x3a0>
800004e0:	fff74983          	lbu	s3,-1(a4)
800004e4:	00150513          	addi	a0,a0,1
800004e8:	00a807b3          	add	a5,a6,a0
800004ec:	ff378fa3          	sb	s3,-1(a5)
800004f0:	fff70713          	addi	a4,a4,-1
800004f4:	00050793          	mv	a5,a0
800004f8:	deb570e3          	bgeu	a0,a1,800002d8 <vsnprintf+0x17c>
800004fc:	00050793          	mv	a5,a0
80000500:	fea910e3          	bne	s2,a0,800004e0 <vsnprintf+0x384>
80000504:	dd5ff06f          	j	800002d8 <vsnprintf+0x17c>
80000508:	00080023          	sb	zero,0(a6)
8000050c:	00008067          	ret
80000510:	00150513          	addi	a0,a0,1
80000514:	01c98023          	sb	t3,0(s3)
80000518:	00050793          	mv	a5,a0
8000051c:	dab57ee3          	bgeu	a0,a1,800002d8 <vsnprintf+0x17c>
80000520:	fff00713          	li	a4,-1
80000524:	00800913          	li	s2,8
80000528:	e0dff06f          	j	80000334 <vsnprintf+0x1d8>
8000052c:	00050793          	mv	a5,a0
80000530:	da9ff06f          	j	800002d8 <vsnprintf+0x17c>

80000534 <sprintf>:
80000534:	fc010113          	addi	sp,sp,-64
80000538:	02810313          	addi	t1,sp,40
8000053c:	02c12423          	sw	a2,40(sp)
80000540:	02d12623          	sw	a3,44(sp)
80000544:	00058613          	mv	a2,a1
80000548:	00030693          	mv	a3,t1
8000054c:	fff00593          	li	a1,-1
80000550:	00112e23          	sw	ra,28(sp)
80000554:	02e12823          	sw	a4,48(sp)
80000558:	02f12a23          	sw	a5,52(sp)
8000055c:	03012c23          	sw	a6,56(sp)
80000560:	03112e23          	sw	a7,60(sp)
80000564:	00612623          	sw	t1,12(sp)
80000568:	bf5ff0ef          	jal	ra,8000015c <vsnprintf>
8000056c:	01c12083          	lw	ra,28(sp)
80000570:	04010113          	addi	sp,sp,64
80000574:	00008067          	ret
