
/home/poker/Desktop/ics2023/am-kernels/kernels/hello/build/hello-riscv32-nemu.elf:     file format elf32-littleriscv


Disassembly of section .text:

80000000 <_start>:
80000000:	00000413          	li	s0,0
80000004:	00009117          	auipc	sp,0x9
80000008:	ffc10113          	addi	sp,sp,-4 # 80009000 <_end>
8000000c:	0a8000ef          	jal	ra,800000b4 <_trm_init>

80000010 <main>:
80000010:	fe010113          	addi	sp,sp,-32
80000014:	00912a23          	sw	s1,20(sp)
80000018:	01212823          	sw	s2,16(sp)
8000001c:	01312623          	sw	s3,12(sp)
80000020:	00112e23          	sw	ra,28(sp)
80000024:	00050993          	mv	s3,a0
80000028:	00812c23          	sw	s0,24(sp)
8000002c:	00000497          	auipc	s1,0x0
80000030:	73448493          	addi	s1,s1,1844 # 80000760 <_etext>
80000034:	04800513          	li	a0,72
80000038:	02500913          	li	s2,37
8000003c:	05250063          	beq	a0,s2,8000007c <main+0x6c>
80000040:	05c000ef          	jal	ra,8000009c <putch>
80000044:	0014c503          	lbu	a0,1(s1)
80000048:	00148493          	addi	s1,s1,1
8000004c:	fe0518e3          	bnez	a0,8000003c <main+0x2c>
80000050:	00000517          	auipc	a0,0x0
80000054:	73c50513          	addi	a0,a0,1852 # 8000078c <_etext+0x2c>
80000058:	5dc000ef          	jal	ra,80000634 <printf>
8000005c:	01c12083          	lw	ra,28(sp)
80000060:	01812403          	lw	s0,24(sp)
80000064:	01412483          	lw	s1,20(sp)
80000068:	01012903          	lw	s2,16(sp)
8000006c:	00c12983          	lw	s3,12(sp)
80000070:	00000513          	li	a0,0
80000074:	02010113          	addi	sp,sp,32
80000078:	00008067          	ret
8000007c:	0009c503          	lbu	a0,0(s3)
80000080:	00098413          	mv	s0,s3
80000084:	fc0500e3          	beqz	a0,80000044 <main+0x34>
80000088:	00140413          	addi	s0,s0,1
8000008c:	010000ef          	jal	ra,8000009c <putch>
80000090:	00044503          	lbu	a0,0(s0)
80000094:	fe051ae3          	bnez	a0,80000088 <main+0x78>
80000098:	fadff06f          	j	80000044 <main+0x34>

8000009c <putch>:
8000009c:	a00007b7          	lui	a5,0xa0000
800000a0:	3ea78c23          	sb	a0,1016(a5) # a00003f8 <_end+0x1fff73f8>
800000a4:	00008067          	ret

800000a8 <halt>:
800000a8:	00050513          	mv	a0,a0
800000ac:	00100073          	ebreak
800000b0:	0000006f          	j	800000b0 <halt+0x8>

800000b4 <_trm_init>:
800000b4:	ff010113          	addi	sp,sp,-16
800000b8:	00000517          	auipc	a0,0x0
800000bc:	7c850513          	addi	a0,a0,1992 # 80000880 <mainargs>
800000c0:	00112623          	sw	ra,12(sp)
800000c4:	f4dff0ef          	jal	ra,80000010 <main>
800000c8:	00050513          	mv	a0,a0
800000cc:	00100073          	ebreak
800000d0:	0000006f          	j	800000d0 <_trm_init+0x1c>

800000d4 <__itoa>:
800000d4:	fd010113          	addi	sp,sp,-48
800000d8:	03212023          	sw	s2,32(sp)
800000dc:	02112623          	sw	ra,44(sp)
800000e0:	02812423          	sw	s0,40(sp)
800000e4:	02912223          	sw	s1,36(sp)
800000e8:	00058913          	mv	s2,a1
800000ec:	0c050c63          	beqz	a0,800001c4 <__itoa+0xf0>
800000f0:	00050413          	mv	s0,a0
800000f4:	00060493          	mv	s1,a2
800000f8:	00000593          	li	a1,0
800000fc:	0a054463          	bltz	a0,800001a4 <__itoa+0xd0>
80000100:	00000793          	li	a5,0
80000104:	00000617          	auipc	a2,0x0
80000108:	76860613          	addi	a2,a2,1896 # 8000086c <sym.0>
8000010c:	02946733          	rem	a4,s0,s1
80000110:	02078693          	addi	a3,a5,32
80000114:	002686b3          	add	a3,a3,sp
80000118:	00178793          	addi	a5,a5,1
8000011c:	0ff7f793          	zext.b	a5,a5
80000120:	02944433          	div	s0,s0,s1
80000124:	00e60733          	add	a4,a2,a4
80000128:	00074703          	lbu	a4,0(a4)
8000012c:	fee68023          	sb	a4,-32(a3)
80000130:	fc041ee3          	bnez	s0,8000010c <__itoa+0x38>
80000134:	02078663          	beqz	a5,80000160 <__itoa+0x8c>
80000138:	00010893          	mv	a7,sp
8000013c:	fff78713          	addi	a4,a5,-1
80000140:	00e88733          	add	a4,a7,a4
80000144:	00090693          	mv	a3,s2
80000148:	00074803          	lbu	a6,0(a4)
8000014c:	00070613          	mv	a2,a4
80000150:	00168693          	addi	a3,a3,1
80000154:	ff068fa3          	sb	a6,-1(a3)
80000158:	fff70713          	addi	a4,a4,-1
8000015c:	fec896e3          	bne	a7,a2,80000148 <__itoa+0x74>
80000160:	00f907b3          	add	a5,s2,a5
80000164:	00078023          	sb	zero,0(a5)
80000168:	fff90513          	addi	a0,s2,-1
8000016c:	00058e63          	beqz	a1,80000188 <__itoa+0xb4>
80000170:	02c12083          	lw	ra,44(sp)
80000174:	02812403          	lw	s0,40(sp)
80000178:	02412483          	lw	s1,36(sp)
8000017c:	02012903          	lw	s2,32(sp)
80000180:	03010113          	addi	sp,sp,48
80000184:	00008067          	ret
80000188:	02c12083          	lw	ra,44(sp)
8000018c:	02812403          	lw	s0,40(sp)
80000190:	02412483          	lw	s1,36(sp)
80000194:	00090513          	mv	a0,s2
80000198:	02012903          	lw	s2,32(sp)
8000019c:	03010113          	addi	sp,sp,48
800001a0:	00008067          	ret
800001a4:	00090513          	mv	a0,s2
800001a8:	00000597          	auipc	a1,0x0
800001ac:	5f858593          	addi	a1,a1,1528 # 800007a0 <_etext+0x40>
800001b0:	594000ef          	jal	ra,80000744 <strcpy>
800001b4:	00190913          	addi	s2,s2,1
800001b8:	40800433          	neg	s0,s0
800001bc:	00100593          	li	a1,1
800001c0:	f41ff06f          	j	80000100 <__itoa+0x2c>
800001c4:	00090513          	mv	a0,s2
800001c8:	00000597          	auipc	a1,0x0
800001cc:	5d458593          	addi	a1,a1,1492 # 8000079c <_etext+0x3c>
800001d0:	574000ef          	jal	ra,80000744 <strcpy>
800001d4:	02c12083          	lw	ra,44(sp)
800001d8:	02812403          	lw	s0,40(sp)
800001dc:	02412483          	lw	s1,36(sp)
800001e0:	00090513          	mv	a0,s2
800001e4:	02012903          	lw	s2,32(sp)
800001e8:	03010113          	addi	sp,sp,48
800001ec:	00008067          	ret

800001f0 <__ptoa>:
800001f0:	00050713          	mv	a4,a0
800001f4:	fff58513          	addi	a0,a1,-1
800001f8:	06070c63          	beqz	a4,80000270 <__ptoa+0x80>
800001fc:	fe010113          	addi	sp,sp,-32
80000200:	00000793          	li	a5,0
80000204:	00000817          	auipc	a6,0x0
80000208:	66880813          	addi	a6,a6,1640 # 8000086c <sym.0>
8000020c:	00f77693          	andi	a3,a4,15
80000210:	00d806b3          	add	a3,a6,a3
80000214:	0006c603          	lbu	a2,0(a3)
80000218:	02078693          	addi	a3,a5,32
8000021c:	002686b3          	add	a3,a3,sp
80000220:	00178793          	addi	a5,a5,1
80000224:	fec68023          	sb	a2,-32(a3)
80000228:	00475713          	srli	a4,a4,0x4
8000022c:	0ff7f793          	zext.b	a5,a5
80000230:	fc071ee3          	bnez	a4,8000020c <__ptoa+0x1c>
80000234:	02078663          	beqz	a5,80000260 <__ptoa+0x70>
80000238:	00010893          	mv	a7,sp
8000023c:	fff78713          	addi	a4,a5,-1
80000240:	00e88733          	add	a4,a7,a4
80000244:	00058693          	mv	a3,a1
80000248:	00074803          	lbu	a6,0(a4)
8000024c:	00070613          	mv	a2,a4
80000250:	00168693          	addi	a3,a3,1
80000254:	ff068fa3          	sb	a6,-1(a3)
80000258:	fff70713          	addi	a4,a4,-1
8000025c:	fec896e3          	bne	a7,a2,80000248 <__ptoa+0x58>
80000260:	00f585b3          	add	a1,a1,a5
80000264:	00058023          	sb	zero,0(a1)
80000268:	02010113          	addi	sp,sp,32
8000026c:	00008067          	ret
80000270:	03000793          	li	a5,48
80000274:	00f58023          	sb	a5,0(a1)
80000278:	000580a3          	sb	zero,1(a1)
8000027c:	00008067          	ret

80000280 <vsprintf>:
80000280:	f9010113          	addi	sp,sp,-112
80000284:	06112623          	sw	ra,108(sp)
80000288:	06812423          	sw	s0,104(sp)
8000028c:	06912223          	sw	s1,100(sp)
80000290:	07212023          	sw	s2,96(sp)
80000294:	05312e23          	sw	s3,92(sp)
80000298:	05412c23          	sw	s4,88(sp)
8000029c:	05512a23          	sw	s5,84(sp)
800002a0:	05612823          	sw	s6,80(sp)
800002a4:	05712623          	sw	s7,76(sp)
800002a8:	05812423          	sw	s8,72(sp)
800002ac:	05912223          	sw	s9,68(sp)
800002b0:	05a12023          	sw	s10,64(sp)
800002b4:	03b12e23          	sw	s11,60(sp)
800002b8:	0005c783          	lbu	a5,0(a1)
800002bc:	00a12623          	sw	a0,12(sp)
800002c0:	34078063          	beqz	a5,80000600 <vsprintf+0x380>
800002c4:	00100c13          	li	s8,1
800002c8:	00058d13          	mv	s10,a1
800002cc:	00060b13          	mv	s6,a2
800002d0:	00050413          	mv	s0,a0
800002d4:	00000993          	li	s3,0
800002d8:	02000b93          	li	s7,32
800002dc:	40bc0c33          	sub	s8,s8,a1
800002e0:	03000a93          	li	s5,48
800002e4:	00000a17          	auipc	s4,0x0
800002e8:	534a0a13          	addi	s4,s4,1332 # 80000818 <_etext+0xb8>
800002ec:	01c0006f          	j	80000308 <vsprintf+0x88>
800002f0:	00f40023          	sb	a5,0(s0)
800002f4:	00140413          	addi	s0,s0,1
800002f8:	00198993          	addi	s3,s3,1
800002fc:	013d07b3          	add	a5,s10,s3
80000300:	0007c783          	lbu	a5,0(a5)
80000304:	12078263          	beqz	a5,80000428 <vsprintf+0x1a8>
80000308:	02500713          	li	a4,37
8000030c:	fee792e3          	bne	a5,a4,800002f0 <vsprintf+0x70>
80000310:	013d07b3          	add	a5,s10,s3
80000314:	0017c703          	lbu	a4,1(a5)
80000318:	03900593          	li	a1,57
8000031c:	00000493          	li	s1,0
80000320:	00000c93          	li	s9,0
80000324:	02000913          	li	s2,32
80000328:	02d00613          	li	a2,45
8000032c:	02500513          	li	a0,37
80000330:	00fc09b3          	add	s3,s8,a5
80000334:	02e5e263          	bltu	a1,a4,80000358 <vsprintf+0xd8>
80000338:	04eaee63          	bltu	s5,a4,80000394 <vsprintf+0x114>
8000033c:	04c71663          	bne	a4,a2,80000388 <vsprintf+0x108>
80000340:	0007c703          	lbu	a4,0(a5)
80000344:	02a70c63          	beq	a4,a0,8000037c <vsprintf+0xfc>
80000348:	00178793          	addi	a5,a5,1
8000034c:	0017c703          	lbu	a4,1(a5)
80000350:	00fc09b3          	add	s3,s8,a5
80000354:	fee5f2e3          	bgeu	a1,a4,80000338 <vsprintf+0xb8>
80000358:	f9c70793          	addi	a5,a4,-100
8000035c:	0ff7f793          	zext.b	a5,a5
80000360:	01400693          	li	a3,20
80000364:	2af6e263          	bltu	a3,a5,80000608 <vsprintf+0x388>
80000368:	00279793          	slli	a5,a5,0x2
8000036c:	014787b3          	add	a5,a5,s4
80000370:	0007a783          	lw	a5,0(a5)
80000374:	014787b3          	add	a5,a5,s4
80000378:	00078067          	jr	a5
8000037c:	00100c93          	li	s9,1
80000380:	00178793          	addi	a5,a5,1
80000384:	fc9ff06f          	j	8000034c <vsprintf+0xcc>
80000388:	29571063          	bne	a4,s5,80000608 <vsprintf+0x388>
8000038c:	0007c683          	lbu	a3,0(a5)
80000390:	18a68663          	beq	a3,a0,8000051c <vsprintf+0x29c>
80000394:	00249693          	slli	a3,s1,0x2
80000398:	009686b3          	add	a3,a3,s1
8000039c:	00169693          	slli	a3,a3,0x1
800003a0:	fd070713          	addi	a4,a4,-48
800003a4:	00d704b3          	add	s1,a4,a3
800003a8:	00178793          	addi	a5,a5,1
800003ac:	fa1ff06f          	j	8000034c <vsprintf+0xcc>
800003b0:	07800793          	li	a5,120
800003b4:	000b2503          	lw	a0,0(s6)
800003b8:	01000613          	li	a2,16
800003bc:	004b0b13          	addi	s6,s6,4
800003c0:	00f70463          	beq	a4,a5,800003c8 <vsprintf+0x148>
800003c4:	00a00613          	li	a2,10
800003c8:	01010593          	addi	a1,sp,16
800003cc:	d09ff0ef          	jal	ra,800000d4 <__itoa>
800003d0:	00040d93          	mv	s11,s0
800003d4:	000c8663          	beqz	s9,800003e0 <vsprintf+0x160>
800003d8:	1980006f          	j	80000570 <vsprintf+0x2f0>
800003dc:	ff2d8fa3          	sb	s2,-1(s11)
800003e0:	01010513          	addi	a0,sp,16
800003e4:	338000ef          	jal	ra,8000071c <strlen>
800003e8:	000d8c93          	mv	s9,s11
800003ec:	001d8d93          	addi	s11,s11,1
800003f0:	408d8733          	sub	a4,s11,s0
800003f4:	40a48533          	sub	a0,s1,a0
800003f8:	fff70713          	addi	a4,a4,-1
800003fc:	fea740e3          	blt	a4,a0,800003dc <vsprintf+0x15c>
80000400:	01010593          	addi	a1,sp,16
80000404:	000c8513          	mv	a0,s9
80000408:	33c000ef          	jal	ra,80000744 <strcpy>
8000040c:	01010513          	addi	a0,sp,16
80000410:	30c000ef          	jal	ra,8000071c <strlen>
80000414:	00ac8433          	add	s0,s9,a0
80000418:	00198993          	addi	s3,s3,1
8000041c:	013d07b3          	add	a5,s10,s3
80000420:	0007c783          	lbu	a5,0(a5)
80000424:	ee0792e3          	bnez	a5,80000308 <vsprintf+0x88>
80000428:	00040023          	sb	zero,0(s0)
8000042c:	06812403          	lw	s0,104(sp)
80000430:	00c12503          	lw	a0,12(sp)
80000434:	06c12083          	lw	ra,108(sp)
80000438:	06412483          	lw	s1,100(sp)
8000043c:	06012903          	lw	s2,96(sp)
80000440:	05c12983          	lw	s3,92(sp)
80000444:	05812a03          	lw	s4,88(sp)
80000448:	05412a83          	lw	s5,84(sp)
8000044c:	05012b03          	lw	s6,80(sp)
80000450:	04c12b83          	lw	s7,76(sp)
80000454:	04812c03          	lw	s8,72(sp)
80000458:	04412c83          	lw	s9,68(sp)
8000045c:	04012d03          	lw	s10,64(sp)
80000460:	03c12d83          	lw	s11,60(sp)
80000464:	07010113          	addi	sp,sp,112
80000468:	2b40006f          	j	8000071c <strlen>
8000046c:	000b2903          	lw	s2,0(s6)
80000470:	00040d93          	mv	s11,s0
80000474:	004b0b13          	addi	s6,s6,4
80000478:	000c8663          	beqz	s9,80000484 <vsprintf+0x204>
8000047c:	0ac0006f          	j	80000528 <vsprintf+0x2a8>
80000480:	ff7d8fa3          	sb	s7,-1(s11)
80000484:	00090513          	mv	a0,s2
80000488:	294000ef          	jal	ra,8000071c <strlen>
8000048c:	000d8c93          	mv	s9,s11
80000490:	001d8d93          	addi	s11,s11,1
80000494:	408d8733          	sub	a4,s11,s0
80000498:	40a48533          	sub	a0,s1,a0
8000049c:	fff70713          	addi	a4,a4,-1
800004a0:	fea740e3          	blt	a4,a0,80000480 <vsprintf+0x200>
800004a4:	00090593          	mv	a1,s2
800004a8:	000c8513          	mv	a0,s9
800004ac:	298000ef          	jal	ra,80000744 <strcpy>
800004b0:	00090513          	mv	a0,s2
800004b4:	268000ef          	jal	ra,8000071c <strlen>
800004b8:	00ac8433          	add	s0,s9,a0
800004bc:	e3dff06f          	j	800002f8 <vsprintf+0x78>
800004c0:	000b2503          	lw	a0,0(s6)
800004c4:	01010593          	addi	a1,sp,16
800004c8:	004b0b13          	addi	s6,s6,4
800004cc:	d25ff0ef          	jal	ra,800001f0 <__ptoa>
800004d0:	00040d93          	mv	s11,s0
800004d4:	000c8663          	beqz	s9,800004e0 <vsprintf+0x260>
800004d8:	0e00006f          	j	800005b8 <vsprintf+0x338>
800004dc:	ff2d8fa3          	sb	s2,-1(s11)
800004e0:	01010513          	addi	a0,sp,16
800004e4:	238000ef          	jal	ra,8000071c <strlen>
800004e8:	000d8c93          	mv	s9,s11
800004ec:	001d8d93          	addi	s11,s11,1
800004f0:	408d8733          	sub	a4,s11,s0
800004f4:	40a48533          	sub	a0,s1,a0
800004f8:	fff70713          	addi	a4,a4,-1
800004fc:	fea740e3          	blt	a4,a0,800004dc <vsprintf+0x25c>
80000500:	01010593          	addi	a1,sp,16
80000504:	000c8513          	mv	a0,s9
80000508:	23c000ef          	jal	ra,80000744 <strcpy>
8000050c:	01010513          	addi	a0,sp,16
80000510:	20c000ef          	jal	ra,8000071c <strlen>
80000514:	00ac8433          	add	s0,s9,a0
80000518:	f01ff06f          	j	80000418 <vsprintf+0x198>
8000051c:	03000913          	li	s2,48
80000520:	00178793          	addi	a5,a5,1
80000524:	e29ff06f          	j	8000034c <vsprintf+0xcc>
80000528:	00090593          	mv	a1,s2
8000052c:	00040513          	mv	a0,s0
80000530:	214000ef          	jal	ra,80000744 <strcpy>
80000534:	00090513          	mv	a0,s2
80000538:	1e4000ef          	jal	ra,8000071c <strlen>
8000053c:	00a40cb3          	add	s9,s0,a0
80000540:	000c8d93          	mv	s11,s9
80000544:	0080006f          	j	8000054c <vsprintf+0x2cc>
80000548:	ff7d8fa3          	sb	s7,-1(s11)
8000054c:	00090513          	mv	a0,s2
80000550:	1cc000ef          	jal	ra,8000071c <strlen>
80000554:	000d8413          	mv	s0,s11
80000558:	001d8d93          	addi	s11,s11,1
8000055c:	419d8733          	sub	a4,s11,s9
80000560:	40a48533          	sub	a0,s1,a0
80000564:	fff70713          	addi	a4,a4,-1
80000568:	fea740e3          	blt	a4,a0,80000548 <vsprintf+0x2c8>
8000056c:	d8dff06f          	j	800002f8 <vsprintf+0x78>
80000570:	01010593          	addi	a1,sp,16
80000574:	00040513          	mv	a0,s0
80000578:	1cc000ef          	jal	ra,80000744 <strcpy>
8000057c:	01010513          	addi	a0,sp,16
80000580:	19c000ef          	jal	ra,8000071c <strlen>
80000584:	00a40cb3          	add	s9,s0,a0
80000588:	000c8d93          	mv	s11,s9
8000058c:	0080006f          	j	80000594 <vsprintf+0x314>
80000590:	ff2d8fa3          	sb	s2,-1(s11)
80000594:	01010513          	addi	a0,sp,16
80000598:	184000ef          	jal	ra,8000071c <strlen>
8000059c:	000d8413          	mv	s0,s11
800005a0:	001d8d93          	addi	s11,s11,1
800005a4:	419d8733          	sub	a4,s11,s9
800005a8:	40a48533          	sub	a0,s1,a0
800005ac:	fff70713          	addi	a4,a4,-1
800005b0:	fea740e3          	blt	a4,a0,80000590 <vsprintf+0x310>
800005b4:	d45ff06f          	j	800002f8 <vsprintf+0x78>
800005b8:	01010593          	addi	a1,sp,16
800005bc:	00040513          	mv	a0,s0
800005c0:	184000ef          	jal	ra,80000744 <strcpy>
800005c4:	01010513          	addi	a0,sp,16
800005c8:	154000ef          	jal	ra,8000071c <strlen>
800005cc:	00a40cb3          	add	s9,s0,a0
800005d0:	000c8d93          	mv	s11,s9
800005d4:	0080006f          	j	800005dc <vsprintf+0x35c>
800005d8:	ff2d8fa3          	sb	s2,-1(s11)
800005dc:	01010513          	addi	a0,sp,16
800005e0:	13c000ef          	jal	ra,8000071c <strlen>
800005e4:	000d8413          	mv	s0,s11
800005e8:	001d8d93          	addi	s11,s11,1
800005ec:	419d8733          	sub	a4,s11,s9
800005f0:	fff70713          	addi	a4,a4,-1
800005f4:	40a48533          	sub	a0,s1,a0
800005f8:	fea740e3          	blt	a4,a0,800005d8 <vsprintf+0x358>
800005fc:	cfdff06f          	j	800002f8 <vsprintf+0x78>
80000600:	00c12403          	lw	s0,12(sp)
80000604:	e25ff06f          	j	80000428 <vsprintf+0x1a8>
80000608:	00000517          	auipc	a0,0x0
8000060c:	19c50513          	addi	a0,a0,412 # 800007a4 <_etext+0x44>
80000610:	024000ef          	jal	ra,80000634 <printf>
80000614:	0d700613          	li	a2,215
80000618:	00000597          	auipc	a1,0x0
8000061c:	1a458593          	addi	a1,a1,420 # 800007bc <_etext+0x5c>
80000620:	00000517          	auipc	a0,0x0
80000624:	1dc50513          	addi	a0,a0,476 # 800007fc <_etext+0x9c>
80000628:	00c000ef          	jal	ra,80000634 <printf>
8000062c:	00100513          	li	a0,1
80000630:	a79ff0ef          	jal	ra,800000a8 <halt>

80000634 <printf>:
80000634:	81010113          	addi	sp,sp,-2032
80000638:	7d212023          	sw	s2,1984(sp)
8000063c:	7c112623          	sw	ra,1996(sp)
80000640:	7c812423          	sw	s0,1992(sp)
80000644:	7c912223          	sw	s1,1988(sp)
80000648:	00001eb7          	lui	t4,0x1
8000064c:	fa010113          	addi	sp,sp,-96
80000650:	01010f13          	addi	t5,sp,16
80000654:	824e8e13          	addi	t3,t4,-2012 # 824 <_entry_offset+0x824>
80000658:	01ee0e33          	add	t3,t3,t5
8000065c:	00be2023          	sw	a1,0(t3)
80000660:	828e8593          	addi	a1,t4,-2008
80000664:	01010f93          	addi	t6,sp,16
80000668:	01e585b3          	add	a1,a1,t5
8000066c:	82ce8f13          	addi	t5,t4,-2004
80000670:	00c5a023          	sw	a2,0(a1)
80000674:	01ff0f33          	add	t5,t5,t6
80000678:	00df2023          	sw	a3,0(t5)
8000067c:	830e8693          	addi	a3,t4,-2000
80000680:	01f686b3          	add	a3,a3,t6
80000684:	00e6a023          	sw	a4,0(a3)
80000688:	834e8713          	addi	a4,t4,-1996
8000068c:	01f70733          	add	a4,a4,t6
80000690:	00f72023          	sw	a5,0(a4)
80000694:	838e8713          	addi	a4,t4,-1992
80000698:	01f70733          	add	a4,a4,t6
8000069c:	01072023          	sw	a6,0(a4)
800006a0:	fffffe37          	lui	t3,0xfffff
800006a4:	83ce8713          	addi	a4,t4,-1988
800006a8:	810e8793          	addi	a5,t4,-2032
800006ac:	834e8313          	addi	t1,t4,-1996
800006b0:	01f70733          	add	a4,a4,t6
800006b4:	01c787b3          	add	a5,a5,t3
800006b8:	00230333          	add	t1,t1,sp
800006bc:	01172023          	sw	a7,0(a4)
800006c0:	01f787b3          	add	a5,a5,t6
800006c4:	00050593          	mv	a1,a0
800006c8:	00030613          	mv	a2,t1
800006cc:	02010513          	addi	a0,sp,32
800006d0:	7e67ae23          	sw	t1,2044(a5)
800006d4:	00f12623          	sw	a5,12(sp)
800006d8:	ba9ff0ef          	jal	ra,80000280 <vsprintf>
800006dc:	00050913          	mv	s2,a0
800006e0:	00a05e63          	blez	a0,800006fc <printf+0xc8>
800006e4:	02010413          	addi	s0,sp,32
800006e8:	00a404b3          	add	s1,s0,a0
800006ec:	00044503          	lbu	a0,0(s0)
800006f0:	00140413          	addi	s0,s0,1
800006f4:	9a9ff0ef          	jal	ra,8000009c <putch>
800006f8:	fe941ae3          	bne	s0,s1,800006ec <printf+0xb8>
800006fc:	06010113          	addi	sp,sp,96
80000700:	7cc12083          	lw	ra,1996(sp)
80000704:	00090513          	mv	a0,s2
80000708:	7c812403          	lw	s0,1992(sp)
8000070c:	7c412483          	lw	s1,1988(sp)
80000710:	7c012903          	lw	s2,1984(sp)
80000714:	7f010113          	addi	sp,sp,2032
80000718:	00008067          	ret

8000071c <strlen>:
8000071c:	00054783          	lbu	a5,0(a0)
80000720:	00050713          	mv	a4,a0
80000724:	00000513          	li	a0,0
80000728:	00078c63          	beqz	a5,80000740 <strlen+0x24>
8000072c:	00150513          	addi	a0,a0,1
80000730:	00a707b3          	add	a5,a4,a0
80000734:	0007c783          	lbu	a5,0(a5)
80000738:	fe079ae3          	bnez	a5,8000072c <strlen+0x10>
8000073c:	00008067          	ret
80000740:	00008067          	ret

80000744 <strcpy>:
80000744:	00050793          	mv	a5,a0
80000748:	0005c703          	lbu	a4,0(a1)
8000074c:	00178793          	addi	a5,a5,1
80000750:	00158593          	addi	a1,a1,1
80000754:	fee78fa3          	sb	a4,-1(a5)
80000758:	fe0718e3          	bnez	a4,80000748 <strcpy+0x4>
8000075c:	00008067          	ret
